target datalayout = "e-m:e-p270:32:32-p271:32:32-p272:64:64-i64:64-i128:128-f80:128-n8:16:32:64-S128"
target triple = "x86_64-pc-linux-gnu"

%"class.google::protobuf::internal::LogMessage" = type { i32, ptr, i32, %"class.std::__cxx11::basic_string" }
%"class.std::__cxx11::basic_string" = type { %"struct.std::__cxx11::basic_string<char>::_Alloc_hider", i64, %union.anon }
%"struct.std::__cxx11::basic_string<char>::_Alloc_hider" = type { ptr }
%union.anon = type { i64, [8 x i8] }
%"class.google::protobuf::internal::LogFinisher" = type { i8 }

@.str = private unnamed_addr constant [148 x i8] c"generated/home/dtcxzyw/WorkSpace/Projects/compilers/llvm-opt-benchmark/bench/opencv/opencv/3rdparty/protobuf/src/google/protobuf/io/coded_stream.cc\00", align 1
@.str.15 = private unnamed_addr constant [71 x i8] c"CHECK failed: (str.size()) <= (std::numeric_limits<uint32_t>::max()): \00", align 1

; Function Attrs: mustprogress nounwind uwtable
define available_externally noundef ptr @_ZNKSt7__cxx1112basic_stringIcSt11char_traitsIcESaIcEE7_M_dataEv(ptr noundef nonnull align 8 dereferenceable(32) %0) #4 align 2 {
  %2 = alloca ptr, align 8
  store ptr %0, ptr %2, align 8, !tbaa !44
  %3 = load ptr, ptr %2, align 8
  %4 = getelementptr inbounds nuw %"class.std::__cxx11::basic_string", ptr %3, i32 0, i32 0
  %5 = getelementptr inbounds nuw %"struct.std::__cxx11::basic_string<char>::_Alloc_hider", ptr %4, i32 0, i32 0
  %6 = load ptr, ptr %5, align 8, !tbaa !120
  ret ptr %6
}

; Function Attrs: inlinehint mustprogress nounwind uwtable
define linkonce_odr hidden noundef ptr @_ZN6google8protobuf2io17CodedOutputStream15WriteRawToArrayEPKviPh(ptr noundef %0, i32 noundef %1, ptr noundef %2) #8 comdat align 2 {
  %4 = alloca ptr, align 8
  %5 = alloca i32, align 4
  %6 = alloca ptr, align 8
  store ptr %0, ptr %4, align 8, !tbaa !41
  store i32 %1, ptr %5, align 4, !tbaa !18
  store ptr %2, ptr %6, align 8, !tbaa !50
  %7 = load ptr, ptr %6, align 8, !tbaa !50
  %8 = load ptr, ptr %4, align 8, !tbaa !41
  %9 = load i32, ptr %5, align 4, !tbaa !18
  %10 = sext i32 %9 to i64
  call void @llvm.memcpy.p0.p0.i64(ptr align 1 %7, ptr align 1 %8, i64 %10, i1 false)
  %11 = load ptr, ptr %6, align 8, !tbaa !50
  %12 = load i32, ptr %5, align 4, !tbaa !18
  %13 = sext i32 %12 to i64
  %14 = getelementptr inbounds i8, ptr %11, i64 %13
  ret ptr %14
}

; Function Attrs: mustprogress nounwind uwtable
define available_externally noundef ptr @_ZNKSt7__cxx1112basic_stringIcSt11char_traitsIcESaIcEE4dataEv(ptr noundef nonnull align 8 dereferenceable(32) %0) #4 align 2 {
  %2 = alloca ptr, align 8
  store ptr %0, ptr %2, align 8, !tbaa !44
  %3 = load ptr, ptr %2, align 8
  %4 = call noundef ptr @_ZNKSt7__cxx1112basic_stringIcSt11char_traitsIcESaIcEE7_M_dataEv(ptr noundef nonnull align 8 dereferenceable(32) %3)
  ret ptr %4
}

; Function Attrs: alwaysinline mustprogress nounwind uwtable
define linkonce_odr hidden noundef ptr @_ZN6google8protobuf2io19EpsCopyOutputStream12UnsafeVarintIjEEPhT_S4_(i32 noundef %0, ptr noundef %1) #13 comdat align 2 {
  %3 = alloca ptr, align 8
  %4 = alloca i32, align 4
  %5 = alloca ptr, align 8
  store i32 %0, ptr %4, align 4, !tbaa !18
  store ptr %1, ptr %5, align 8, !tbaa !50
  %6 = load i32, ptr %4, align 4, !tbaa !18
  %7 = trunc i32 %6 to i8
  %8 = load ptr, ptr %5, align 8, !tbaa !50
  %9 = getelementptr inbounds i8, ptr %8, i64 0
  store i8 %7, ptr %9, align 1, !tbaa !29
  %10 = load i32, ptr %4, align 4, !tbaa !18
  %11 = icmp ult i32 %10, 128
  br i1 %11, label %12, label %15

12:                                               ; preds = %2
  %13 = load ptr, ptr %5, align 8, !tbaa !50
  %14 = getelementptr inbounds i8, ptr %13, i64 1
  store ptr %14, ptr %3, align 8
  br label %55

15:                                               ; preds = %2
  %16 = load ptr, ptr %5, align 8, !tbaa !50
  %17 = getelementptr inbounds i8, ptr %16, i64 0
  %18 = load i8, ptr %17, align 1, !tbaa !29
  %19 = zext i8 %18 to i32
  %20 = or i32 %19, 128
  %21 = trunc i32 %20 to i8
  store i8 %21, ptr %17, align 1, !tbaa !29
  %22 = load i32, ptr %4, align 4, !tbaa !18
  %23 = lshr i32 %22, 7
  store i32 %23, ptr %4, align 4, !tbaa !18
  %24 = load i32, ptr %4, align 4, !tbaa !18
  %25 = trunc i32 %24 to i8
  %26 = load ptr, ptr %5, align 8, !tbaa !50
  %27 = getelementptr inbounds i8, ptr %26, i64 1
  store i8 %25, ptr %27, align 1, !tbaa !29
  %28 = load i32, ptr %4, align 4, !tbaa !18
  %29 = icmp ult i32 %28, 128
  br i1 %29, label %30, label %33

30:                                               ; preds = %15
  %31 = load ptr, ptr %5, align 8, !tbaa !50
  %32 = getelementptr inbounds i8, ptr %31, i64 2
  store ptr %32, ptr %3, align 8
  br label %55

33:                                               ; preds = %15
  %34 = load ptr, ptr %5, align 8, !tbaa !50
  %35 = getelementptr inbounds i8, ptr %34, i64 2
  store ptr %35, ptr %5, align 8, !tbaa !50
  br label %36

36:                                               ; preds = %50, %33
  %37 = load ptr, ptr %5, align 8, !tbaa !50
  %38 = getelementptr inbounds i8, ptr %37, i64 -1
  %39 = load i8, ptr %38, align 1, !tbaa !29
  %40 = zext i8 %39 to i32
  %41 = or i32 %40, 128
  %42 = trunc i32 %41 to i8
  store i8 %42, ptr %38, align 1, !tbaa !29
  %43 = load i32, ptr %4, align 4, !tbaa !18
  %44 = lshr i32 %43, 7
  store i32 %44, ptr %4, align 4, !tbaa !18
  %45 = load i32, ptr %4, align 4, !tbaa !18
  %46 = trunc i32 %45 to i8
  %47 = load ptr, ptr %5, align 8, !tbaa !50
  store i8 %46, ptr %47, align 1, !tbaa !29
  %48 = load ptr, ptr %5, align 8, !tbaa !50
  %49 = getelementptr inbounds nuw i8, ptr %48, i32 1
  store ptr %49, ptr %5, align 8, !tbaa !50
  br label %50

50:                                               ; preds = %36
  %51 = load i32, ptr %4, align 4, !tbaa !18
  %52 = icmp uge i32 %51, 128
  br i1 %52, label %36, label %53, !llvm.loop !148

53:                                               ; preds = %50
  %54 = load ptr, ptr %5, align 8, !tbaa !50
  store ptr %54, ptr %3, align 8
  br label %55

55:                                               ; preds = %53, %30, %12
  %56 = load ptr, ptr %3, align 8
  ret ptr %56
}

; Function Attrs: inlinehint mustprogress uwtable
define linkonce_odr hidden noundef ptr @_ZN6google8protobuf2io17CodedOutputStream18WriteStringToArrayERKNSt7__cxx1112basic_stringIcSt11char_traitsIcESaIcEEEPh(ptr noundef nonnull align 8 dereferenceable(32) %0, ptr noundef %1) #10 comdat align 2 {
  %3 = alloca ptr, align 8
  %4 = alloca ptr, align 8
  store ptr %0, ptr %3, align 8, !tbaa !44
  store ptr %1, ptr %4, align 8, !tbaa !50
  %5 = load ptr, ptr %3, align 8, !tbaa !44
  %6 = call noundef ptr @_ZNKSt7__cxx1112basic_stringIcSt11char_traitsIcESaIcEE4dataEv(ptr noundef nonnull align 8 dereferenceable(32) %5) #3
  %7 = load ptr, ptr %3, align 8, !tbaa !44
  %8 = call noundef i64 @_ZNKSt7__cxx1112basic_stringIcSt11char_traitsIcESaIcEE4sizeEv(ptr noundef nonnull align 8 dereferenceable(32) %7) #3
  %9 = trunc i64 %8 to i32
  %10 = load ptr, ptr %4, align 8, !tbaa !50
  %11 = call noundef ptr @_ZN6google8protobuf2io17CodedOutputStream15WriteRawToArrayEPKviPh(ptr noundef %6, i32 noundef %9, ptr noundef %10)
  ret ptr %11
}

; Function Attrs: inlinehint mustprogress nounwind uwtable
define linkonce_odr hidden noundef ptr @_ZN6google8protobuf2io17CodedOutputStream20WriteVarint32ToArrayEjPh(i32 noundef %0, ptr noundef %1) #8 comdat align 2 {
  %3 = alloca i32, align 4
  %4 = alloca ptr, align 8
  store i32 %0, ptr %3, align 4, !tbaa !18
  store ptr %1, ptr %4, align 8, !tbaa !50
  %5 = load i32, ptr %3, align 4, !tbaa !18
  %6 = load ptr, ptr %4, align 8, !tbaa !50
  %7 = call noundef ptr @_ZN6google8protobuf2io19EpsCopyOutputStream12UnsafeVarintIjEEPhT_S4_(i32 noundef %5, ptr noundef %6)
  ret ptr %7
}

; Function Attrs: mustprogress nounwind uwtable
define linkonce_odr hidden noundef i32 @_ZNSt14numeric_limitsIjE3maxEv() #4 comdat align 2 {
  ret i32 -1
}

; Function Attrs: mustprogress nounwind uwtable
define available_externally noundef i64 @_ZNKSt7__cxx1112basic_stringIcSt11char_traitsIcESaIcEE4sizeEv(ptr noundef nonnull align 8 dereferenceable(32) %0) #4 align 2 {
  %2 = alloca ptr, align 8
  store ptr %0, ptr %2, align 8, !tbaa !44
  %3 = load ptr, ptr %2, align 8
  %4 = getelementptr inbounds nuw %"class.std::__cxx11::basic_string", ptr %3, i32 0, i32 1
  %5 = load i64, ptr %4, align 8, !tbaa !102
  ret i64 %5
}

; Function Attrs: mustprogress uwtable
define hidden noundef ptr @_ZN6google8protobuf2io17CodedOutputStream26WriteStringWithSizeToArrayERKNSt7__cxx1112basic_stringIcSt11char_traitsIcESaIcEEEPh(ptr noundef nonnull align 8 dereferenceable(32) %0, ptr noundef %1) #5 align 2 personality ptr @__gxx_personality_v0 {
  %3 = alloca ptr, align 8
  %4 = alloca ptr, align 8
  %5 = alloca %"class.google::protobuf::internal::LogMessage", align 8
  %6 = alloca i1, align 1
  %7 = alloca i1, align 1
  %8 = alloca ptr, align 8
  %9 = alloca i32, align 4
  %10 = alloca %"class.google::protobuf::internal::LogFinisher", align 1
  store ptr %0, ptr %3, align 8, !tbaa !44
  store ptr %1, ptr %4, align 8, !tbaa !50
  br label %11

11:                                               ; preds = %29, %2
  br i1 false, label %12, label %45

12:                                               ; preds = %11
  %13 = load ptr, ptr %3, align 8, !tbaa !44
  %14 = call noundef i64 @_ZNKSt7__cxx1112basic_stringIcSt11char_traitsIcESaIcEE4sizeEv(ptr noundef nonnull align 8 dereferenceable(32) %13) #3
  %15 = call noundef i32 @_ZNSt14numeric_limitsIjE3maxEv() #3
  %16 = zext i32 %15 to i64
  %17 = icmp ule i64 %14, %16
  store i1 false, ptr %6, align 1
  store i1 false, ptr %7, align 1
  call void @llvm.lifetime.start.p0(i64 1, ptr %10) #3
  br i1 %17, label %18, label %19

18:                                               ; preds = %12
  br label %23

19:                                               ; preds = %12
  call void @llvm.lifetime.start.p0(i64 56, ptr %5) #3
  store i1 true, ptr %6, align 1
  call void @_ZN6google8protobuf8internal10LogMessageC1ENS0_8LogLevelEPKci(ptr noundef nonnull align 8 dereferenceable(56) %5, i32 noundef 3, ptr noundef @.str, i32 noundef 949)
  store i1 true, ptr %7, align 1
  %20 = invoke noundef nonnull align 8 dereferenceable(56) ptr @_ZN6google8protobuf8internal10LogMessagelsEPKc(ptr noundef nonnull align 8 dereferenceable(56) %5, ptr noundef @.str.15)
          to label %21 unwind label %30

21:                                               ; preds = %19
  invoke void @_ZN6google8protobuf8internal11LogFinisheraSERNS1_10LogMessageE(ptr noundef nonnull align 1 dereferenceable(1) %10, ptr noundef nonnull align 8 dereferenceable(56) %20)
          to label %22 unwind label %34

22:                                               ; preds = %21
  br label %23

23:                                               ; preds = %22, %18
  call void @llvm.lifetime.end.p0(i64 1, ptr %10) #3
  %24 = load i1, ptr %7, align 1
  br i1 %24, label %25, label %26

25:                                               ; preds = %23
  call void @_ZN6google8protobuf8internal10LogMessageD1Ev(ptr noundef nonnull align 8 dereferenceable(56) %5) #3
  br label %26

26:                                               ; preds = %25, %23
  %27 = load i1, ptr %6, align 1
  br i1 %27, label %28, label %29

28:                                               ; preds = %26
  call void @llvm.lifetime.end.p0(i64 56, ptr %5) #3
  br label %29

29:                                               ; preds = %28, %26
  br label %11, !llvm.loop !112

30:                                               ; preds = %19
  %31 = landingpad { ptr, i32 }
          cleanup
  %32 = extractvalue { ptr, i32 } %31, 0
  store ptr %32, ptr %8, align 8
  %33 = extractvalue { ptr, i32 } %31, 1
  store i32 %33, ptr %9, align 4
  br label %38

34:                                               ; preds = %21
  %35 = landingpad { ptr, i32 }
          cleanup
  %36 = extractvalue { ptr, i32 } %35, 0
  store ptr %36, ptr %8, align 8
  %37 = extractvalue { ptr, i32 } %35, 1
  store i32 %37, ptr %9, align 4
  call void @llvm.lifetime.end.p0(i64 1, ptr %10) #3
  br label %38

38:                                               ; preds = %34, %30
  %39 = load i1, ptr %7, align 1
  br i1 %39, label %40, label %41

40:                                               ; preds = %38
  call void @_ZN6google8protobuf8internal10LogMessageD1Ev(ptr noundef nonnull align 8 dereferenceable(56) %5) #3
  br label %41

41:                                               ; preds = %40, %38
  %42 = load i1, ptr %6, align 1
  br i1 %42, label %43, label %44

43:                                               ; preds = %41
  call void @llvm.lifetime.end.p0(i64 56, ptr %5) #3
  br label %44

44:                                               ; preds = %43, %41
  br label %54

45:                                               ; preds = %11
  %46 = load ptr, ptr %3, align 8, !tbaa !44
  %47 = call noundef i64 @_ZNKSt7__cxx1112basic_stringIcSt11char_traitsIcESaIcEE4sizeEv(ptr noundef nonnull align 8 dereferenceable(32) %46) #3
  %48 = trunc i64 %47 to i32
  %49 = load ptr, ptr %4, align 8, !tbaa !50
  %50 = call noundef ptr @_ZN6google8protobuf2io17CodedOutputStream20WriteVarint32ToArrayEjPh(i32 noundef %48, ptr noundef %49)
  store ptr %50, ptr %4, align 8, !tbaa !50
  %51 = load ptr, ptr %3, align 8, !tbaa !44
  %52 = load ptr, ptr %4, align 8, !tbaa !50
  %53 = call noundef ptr @_ZN6google8protobuf2io17CodedOutputStream18WriteStringToArrayERKNSt7__cxx1112basic_stringIcSt11char_traitsIcESaIcEEEPh(ptr noundef nonnull align 8 dereferenceable(32) %51, ptr noundef %52)
  ret ptr %53

54:                                               ; preds = %44
  %55 = load ptr, ptr %8, align 8
  %56 = load i32, ptr %9, align 4
  %57 = insertvalue { ptr, i32 } poison, ptr %55, 0
  %58 = insertvalue { ptr, i32 } %57, i32 %56, 1
  resume { ptr, i32 } %58
}