; Function Attrs: mustprogress nofree norecurse nosync nounwind memory(readwrite, inaccessiblemem: none) uwtable
define hidden noundef nonnull ptr @_ZN6google8protobuf2io17CodedOutputStream26WriteStringWithSizeToArrayERKNSt7__cxx1112basic_stringIcSt11char_traitsIcESaIcEEEPh(ptr noundef nonnull readonly align 8 captures(none) dereferenceable(32) %0, ptr noundef initializes((0, 1)) %1) local_unnamed_addr #11 align 2 personality ptr @__gxx_personality_v0 {
  %3 = getelementptr inbounds nuw i8, ptr %0, i64 8
  %4 = load i64, ptr %3, align 8, !tbaa !40
  %5 = trunc i64 %4 to i32
  %6 = trunc i64 %4 to i8
  store i8 %6, ptr %1, align 1, !tbaa !27
  %7 = icmp ult i32 %5, 128
  br i1 %7, label %8, label %10

8:                                                ; preds = %2
  %9 = getelementptr inbounds nuw i8, ptr %1, i64 1
  br label %_ZN6google8protobuf2io17CodedOutputStream20WriteVarint32ToArrayEjPh.exit

10:                                               ; preds = %2
  %11 = or i8 %6, -128
  store i8 %11, ptr %1, align 1, !tbaa !27
  %12 = lshr i32 %5, 7
  %13 = trunc i32 %12 to i8
  %14 = getelementptr inbounds nuw i8, ptr %1, i64 1
  store i8 %13, ptr %14, align 1, !tbaa !27
  %15 = icmp ult i32 %5, 16384
  %16 = getelementptr inbounds nuw i8, ptr %1, i64 2
  br i1 %15, label %_ZN6google8protobuf2io17CodedOutputStream20WriteVarint32ToArrayEjPh.exit, label %.preheader.preheader

.preheader.preheader:                             ; preds = %10
  %scevgep = getelementptr i8, ptr %1, i64 1
  %load_initial = load i8, ptr %scevgep, align 1
  br label %.preheader

.preheader:                                       ; preds = %.preheader.preheader, %.preheader
  %store_forwarded = phi i8 [ %load_initial, %.preheader.preheader ], [ %20, %.preheader ]
  %.018.i.i = phi i32 [ %12, %.preheader.preheader ], [ %19, %.preheader ]
  %.0.i.i = phi ptr [ %16, %.preheader.preheader ], [ %21, %.preheader ]
  %17 = getelementptr inbounds i8, ptr %.0.i.i, i64 -1
  %18 = or i8 %store_forwarded, -128
  store i8 %18, ptr %17, align 1, !tbaa !27
  %19 = lshr i32 %.018.i.i, 7
  %20 = trunc i32 %19 to i8
  store i8 %20, ptr %.0.i.i, align 1, !tbaa !27
  %21 = getelementptr inbounds nuw i8, ptr %.0.i.i, i64 1
  %22 = icmp samesign ugt i32 %.018.i.i, 16383
  br i1 %22, label %.preheader, label %_ZN6google8protobuf2io17CodedOutputStream20WriteVarint32ToArrayEjPh.exit, !llvm.loop !67

_ZN6google8protobuf2io17CodedOutputStream20WriteVarint32ToArrayEjPh.exit: ; preds = %.preheader, %8, %10
  %.019.i.i = phi ptr [ %9, %8 ], [ %16, %10 ], [ %21, %.preheader ]
  %23 = load ptr, ptr %0, align 8, !tbaa !36
  %24 = load i64, ptr %3, align 8, !tbaa !40
  %sext.i = shl i64 %24, 32
  %25 = ashr exact i64 %sext.i, 32
  tail call void @llvm.memcpy.p0.p0.i64(ptr nonnull align 1 %.019.i.i, ptr align 1 %23, i64 %25, i1 false)
  %26 = getelementptr inbounds i8, ptr %.019.i.i, i64 %25
  ret ptr %26
}